target datalayout = "e-m:e-p270:32:32-p271:32:32-p272:64:64-i64:64-i128:128-f80:128-n8:16:32:64-S128"
target triple = "x86_64-pc-linux-gnu"

%struct.string_list_item = type { ptr, ptr }

@.str.8 = private unnamed_addr constant [1 x i8] zeroinitializer, align 1
@.str.74 = private unnamed_addr constant [23 x i8] c"missing value for '%s'\00", align 1
@git_gettext_enabled = external global i32, align 4

; Function Attrs: inlinehint nounwind uwtable
define internal ptr @_(ptr noundef %0) #6 {
  %2 = alloca ptr, align 8
  %3 = alloca ptr, align 8
  store ptr %0, ptr %3, align 8, !tbaa !4
  %4 = load ptr, ptr %3, align 8, !tbaa !4
  %5 = load i8, ptr %4, align 1, !tbaa !9
  %6 = icmp ne i8 %5, 0
  br i1 %6, label %8, label %7

7:                                                ; preds = %1
  store ptr @.str.8, ptr %2, align 8
  br label %16

8:                                                ; preds = %1
  %9 = load i32, ptr @git_gettext_enabled, align 4, !tbaa !13
  %10 = icmp ne i32 %9, 0
  br i1 %10, label %13, label %11

11:                                               ; preds = %8
  %12 = load ptr, ptr %3, align 8, !tbaa !4
  store ptr %12, ptr %2, align 8
  br label %16

13:                                               ; preds = %8
  %14 = load ptr, ptr %3, align 8, !tbaa !4
  %15 = call ptr @dcgettext(ptr noundef null, ptr noundef %14, i32 noundef 5) #13
  store ptr %15, ptr %2, align 8
  br label %16

16:                                               ; preds = %13, %11, %7
  %17 = load ptr, ptr %2, align 8
  ret ptr %17
}

; Function Attrs: inlinehint nounwind uwtable
define internal i32 @const_error() #6 {
  ret i32 -1
}

; Function Attrs: nounwind uwtable
define dso_local i32 @config_error_nonbool(ptr noundef %0) #0 {
  %2 = alloca ptr, align 8
  store ptr %0, ptr %2, align 8, !tbaa !4
  %3 = call ptr @_(ptr noundef @.str.74)
  %4 = load ptr, ptr %2, align 8, !tbaa !4
  %5 = call i32 (ptr, ...) @error(ptr noundef %3, ptr noundef %4)
  %6 = call i32 @const_error()
  ret i32 %6
}

; Function Attrs: nounwind uwtable
define internal i32 @check_multi_string(ptr noundef %0, ptr noundef %1) #0 {
  %3 = alloca ptr, align 8
  %4 = alloca ptr, align 8
  store ptr %0, ptr %3, align 8, !tbaa !141
  store ptr %1, ptr %4, align 8, !tbaa !30
  %5 = load ptr, ptr %3, align 8, !tbaa !141
  %6 = getelementptr inbounds nuw %struct.string_list_item, ptr %5, i32 0, i32 0
  %7 = load ptr, ptr %6, align 8, !tbaa !133
  %8 = icmp ne ptr %7, null
  br i1 %8, label %9, label %10

9:                                                ; preds = %2
  br label %14

10:                                               ; preds = %2
  %11 = load ptr, ptr %4, align 8, !tbaa !30
  %12 = call i32 @config_error_nonbool(ptr noundef %11)
  %13 = call i32 @const_error()
  br label %14

14:                                               ; preds = %10, %9
  %15 = phi i32 [ 0, %9 ], [ %13, %10 ]
  ret i32 %15
}