; Function Attrs: nounwind uwtable
define internal range(i32 -1, 1) i32 @check_multi_string(ptr noundef readonly captures(none) %0, ptr noundef %1) #0 {
  %3 = load ptr, ptr %0, align 8, !tbaa !101
  %.not = icmp eq ptr %3, null
  br i1 %.not, label %4, label %9

4:                                                ; preds = %2
  %5 = load i32, ptr @git_gettext_enabled, align 4, !tbaa !14
  %.not4.i.i = icmp eq i32 %5, 0
  br i1 %.not4.i.i, label %config_error_nonbool.exit, label %6

6:                                                ; preds = %4
  %7 = tail call ptr @dcgettext(ptr noundef null, ptr noundef nonnull @.str.74, i32 noundef 5) #30
  br label %config_error_nonbool.exit

config_error_nonbool.exit:                        ; preds = %4, %6
  %.0.i.i = phi ptr [ %7, %6 ], [ @.str.74, %4 ]
  %8 = tail call i32 (ptr, ...) @error(ptr noundef %.0.i.i, ptr noundef %1) #30
  br label %9

9:                                                ; preds = %2, %config_error_nonbool.exit
  %10 = phi i32 [ -1, %config_error_nonbool.exit ], [ 0, %2 ]
  ret i32 %10
}